target datalayout = "e-m:e-p270:32:32-p271:32:32-p272:64:64-i64:64-i128:128-f80:128-n8:16:32:64-S128"
target triple = "x86_64-pc-linux-gnu"

%struct.rb_imemo_tmpbuf_struct = type { i64, i64, ptr, ptr, i64 }

@.str.174 = private unnamed_addr constant [8 x i8] c"/bin/sh\00", align 1
@.str.175 = private unnamed_addr constant [3 x i8] c"sh\00", align 1
@.str.176 = private unnamed_addr constant [3 x i8] c"-c\00", align 1

; Function Attrs: inlinehint nounwind sspstrong uwtable
define internal ptr @RB_IMEMO_TMPBUF_PTR(i64 noundef %0) #1 {
  %2 = alloca i64, align 8
  %3 = alloca ptr, align 8
  store i64 %0, ptr %2, align 8, !tbaa !35
  call void @llvm.lifetime.start.p0(i64 8, ptr %3) #27
  %4 = load i64, ptr %2, align 8, !tbaa !35
  %5 = inttoptr i64 %4 to ptr
  store ptr %5, ptr %3, align 8, !tbaa !123
  %6 = load ptr, ptr %3, align 8, !tbaa !123
  %7 = getelementptr inbounds nuw %struct.rb_imemo_tmpbuf_struct, ptr %6, i32 0, i32 2
  %8 = load ptr, ptr %7, align 8, !tbaa !125
  call void @llvm.lifetime.end.p0(i64 8, ptr %3) #27
  ret ptr %8
}

; Function Attrs: nounwind sspstrong uwtable
define internal void @before_exec_async_signal_safe() #0 {
  ret void
}

; Function Attrs: nounwind sspstrong uwtable
define internal void @before_exec_non_async_signal_safe() #0 {
  call void @rb_thread_stop_timer_thread()
  ret void
}

; Function Attrs: nounwind sspstrong uwtable
define internal void @after_exec() #0 {
  call void @rb_thread_reset_timer_thread()
  call void @rb_thread_start_timer_thread()
  ret void
}

; Function Attrs: nounwind sspstrong uwtable
define internal i32 @proc_exec_sh(ptr noundef %0, i64 noundef %1) #0 {
  %3 = alloca i32, align 4
  %4 = alloca ptr, align 8
  %5 = alloca i64, align 8
  %6 = alloca ptr, align 8
  %7 = alloca i32, align 4
  store ptr %0, ptr %4, align 8, !tbaa !64
  store i64 %1, ptr %5, align 8, !tbaa !35
  call void @llvm.lifetime.start.p0(i64 8, ptr %6) #27
  %8 = load ptr, ptr %4, align 8, !tbaa !64
  store ptr %8, ptr %6, align 8, !tbaa !64
  br label %9

9:                                                ; preds = %26, %2
  %10 = load ptr, ptr %6, align 8, !tbaa !64
  %11 = load i8, ptr %10, align 1, !tbaa !66
  %12 = sext i8 %11 to i32
  %13 = icmp eq i32 %12, 32
  br i1 %13, label %24, label %14

14:                                               ; preds = %9
  %15 = load ptr, ptr %6, align 8, !tbaa !64
  %16 = load i8, ptr %15, align 1, !tbaa !66
  %17 = sext i8 %16 to i32
  %18 = icmp eq i32 %17, 9
  br i1 %18, label %24, label %19

19:                                               ; preds = %14
  %20 = load ptr, ptr %6, align 8, !tbaa !64
  %21 = load i8, ptr %20, align 1, !tbaa !66
  %22 = sext i8 %21 to i32
  %23 = icmp eq i32 %22, 10
  br label %24

24:                                               ; preds = %19, %14, %9
  %25 = phi i1 [ true, %14 ], [ true, %9 ], [ %23, %19 ]
  br i1 %25, label %26, label %29

26:                                               ; preds = %24
  %27 = load ptr, ptr %6, align 8, !tbaa !64
  %28 = getelementptr i8, ptr %27, i32 1
  store ptr %28, ptr %6, align 8, !tbaa !64
  br label %9, !llvm.loop !67

29:                                               ; preds = %24
  %30 = load ptr, ptr %6, align 8, !tbaa !64
  %31 = load i8, ptr %30, align 1, !tbaa !66
  %32 = icmp ne i8 %31, 0
  br i1 %32, label %34, label %33

33:                                               ; preds = %29
  store i32 2, ptr %3, align 4
  store i32 1, ptr %7, align 4
  br label %48

34:                                               ; preds = %29
  %35 = load i64, ptr %5, align 8, !tbaa !35
  %36 = icmp ne i64 %35, 0
  br i1 %36, label %37, label %42

37:                                               ; preds = %34
  %38 = load ptr, ptr %4, align 8, !tbaa !64
  %39 = load i64, ptr %5, align 8, !tbaa !35
  %40 = call ptr @RB_IMEMO_TMPBUF_PTR(i64 noundef %39)
  %41 = call i32 (ptr, ptr, ...) @execle(ptr noundef @.str.174, ptr noundef @.str.175, ptr noundef @.str.176, ptr noundef %38, ptr noundef null, ptr noundef %40) #27
  br label %45

42:                                               ; preds = %34
  %43 = load ptr, ptr %4, align 8, !tbaa !64
  %44 = call i32 (ptr, ptr, ...) @execl(ptr noundef @.str.174, ptr noundef @.str.175, ptr noundef @.str.176, ptr noundef %43, ptr noundef null) #27
  br label %45

45:                                               ; preds = %42, %37
  %46 = call ptr @rb_errno_ptr()
  %47 = load i32, ptr %46, align 4, !tbaa !34
  store i32 %47, ptr %3, align 4
  store i32 1, ptr %7, align 4
  br label %48

48:                                               ; preds = %45, %33
  call void @llvm.lifetime.end.p0(i64 8, ptr %6) #27
  %49 = load i32, ptr %3, align 4
  ret i32 %49
}

; Function Attrs: nounwind sspstrong uwtable
define internal void @before_exec() #0 {
  call void @before_exec_non_async_signal_safe()
  call void @before_exec_async_signal_safe()
  ret void
}

; Function Attrs: nounwind sspstrong uwtable
define dso_local i32 @rb_proc_exec(ptr noundef nonnull %0) #0 {
  %2 = alloca ptr, align 8
  %3 = alloca i32, align 4
  store ptr %0, ptr %2, align 8, !tbaa !64
  call void @llvm.lifetime.start.p0(i64 4, ptr %3) #27
  call void @before_exec()
  %4 = load ptr, ptr %2, align 8, !tbaa !64
  %5 = call i32 @proc_exec_sh(ptr noundef %4, i64 noundef 0)
  store i32 %5, ptr %3, align 4, !tbaa !34
  call void @after_exec()
  %6 = load i32, ptr %3, align 4, !tbaa !34
  %7 = call ptr @rb_errno_ptr()
  store i32 %6, ptr %7, align 4, !tbaa !34
  call void @llvm.lifetime.end.p0(i64 4, ptr %3) #27
  ret i32 -1
}