; Function Attrs: nounwind sspstrong uwtable
define dso_local noundef i32 @rb_proc_exec(ptr noundef nonnull %0) local_unnamed_addr #1 {
  tail call void @rb_thread_stop_timer_thread() #27
  br label %2

2:                                                ; preds = %.critedge.i, %1
  %.0.i = phi ptr [ %0, %1 ], [ %4, %.critedge.i ]
  %3 = load i8, ptr %.0.i, align 1, !tbaa !67
  switch i8 %3, label %5 [
    i8 32, label %.critedge.i
    i8 9, label %.critedge.i
    i8 10, label %.critedge.i
    i8 0, label %proc_exec_sh.exit
  ]

.critedge.i:                                      ; preds = %2, %2, %2
  %4 = getelementptr i8, ptr %.0.i, i64 1
  br label %2, !llvm.loop !68

5:                                                ; preds = %2
  %6 = tail call i32 (ptr, ptr, ...) @execl(ptr noundef nonnull @.str.174, ptr noundef nonnull @.str.175, ptr noundef nonnull @.str.176, ptr noundef nonnull %0, ptr noundef null) #27
  %7 = tail call ptr @rb_errno_ptr() #27
  %8 = load i32, ptr %7, align 4, !tbaa !60
  br label %proc_exec_sh.exit

proc_exec_sh.exit:                                ; preds = %2, %5
  %.010.i = phi i32 [ %8, %5 ], [ 2, %2 ]
  tail call void @rb_thread_reset_timer_thread() #27
  tail call void @rb_thread_start_timer_thread() #27
  %9 = tail call ptr @rb_errno_ptr() #27
  store i32 %.010.i, ptr %9, align 4, !tbaa !60
  ret i32 -1
}